; Function Attrs: cold nounwind optsize uwtable
define internal noundef i32 @hq_hqa_decode_init(ptr noundef %0) #0 {
  %2 = getelementptr inbounds nuw i8, ptr %0, i64 32
  %3 = load ptr, ptr %2, align 8, !tbaa !4
  store ptr %0, ptr %3, align 16, !tbaa !27
  %4 = getelementptr inbounds nuw i8, ptr %3, i64 8
  tail call void @ff_hqdsp_init(ptr noundef nonnull %4) #6
  %5 = tail call i32 @pthread_once(ptr noundef nonnull @hq_hqa_decode_init.init_static_once, ptr noundef nonnull @hq_init_static) #6
  ret i32 0
}